target datalayout = "e-m:e-p270:32:32-p271:32:32-p272:64:64-i64:64-i128:128-f80:128-n8:16:32:64-S128"
target triple = "x86_64-pc-linux-gnu"

%struct.AVProbeData = type { ptr, ptr, i32, ptr }

; Function Attrs: nounwind uwtable
define internal i32 @probe(ptr noundef %0) #0 {
  %2 = alloca i32, align 4
  %3 = alloca ptr, align 8
  %4 = alloca i32, align 4
  %5 = alloca i32, align 4
  %6 = alloca i32, align 4
  %7 = alloca i32, align 4
  store ptr %0, ptr %3, align 8, !tbaa !4
  call void @llvm.lifetime.start.p0(i64 4, ptr %4) #8
  store i32 0, ptr %4, align 4, !tbaa !9
  call void @llvm.lifetime.start.p0(i64 4, ptr %5) #8
  call void @llvm.lifetime.start.p0(i64 4, ptr %6) #8
  store i32 0, ptr %6, align 4, !tbaa !9
  br label %8

8:                                                ; preds = %61, %1
  %9 = load i32, ptr %4, align 4, !tbaa !9
  %10 = mul nsw i32 2, %9
  %11 = add nsw i32 %10, 3
  %12 = load ptr, ptr %3, align 8, !tbaa !4
  %13 = getelementptr inbounds nuw %struct.AVProbeData, ptr %12, i32 0, i32 2
  %14 = load i32, ptr %13, align 8, !tbaa !11
  %15 = icmp slt i32 %11, %14
  br i1 %15, label %16, label %65

16:                                               ; preds = %8
  %17 = load ptr, ptr %3, align 8, !tbaa !4
  %18 = getelementptr inbounds nuw %struct.AVProbeData, ptr %17, i32 0, i32 1
  %19 = load ptr, ptr %18, align 8, !tbaa !14
  %20 = load i32, ptr %4, align 4, !tbaa !9
  %21 = add nsw i32 %20, 1
  store i32 %21, ptr %4, align 4, !tbaa !9
  %22 = mul nsw i32 2, %20
  %23 = sext i32 %22 to i64
  %24 = getelementptr inbounds i8, ptr %19, i64 %23
  %25 = load i16, ptr %24, align 1, !tbaa !15
  %26 = zext i16 %25 to i32
  %27 = icmp ne i32 %26, 27425
  br i1 %27, label %28, label %29

28:                                               ; preds = %16
  store i32 0, ptr %2, align 4
  store i32 1, ptr %7, align 4
  br label %74

29:                                               ; preds = %16
  %30 = load ptr, ptr %3, align 8, !tbaa !4
  %31 = getelementptr inbounds nuw %struct.AVProbeData, ptr %30, i32 0, i32 1
  %32 = load ptr, ptr %31, align 8, !tbaa !14
  %33 = load i32, ptr %4, align 4, !tbaa !9
  %34 = add nsw i32 %33, 1
  store i32 %34, ptr %4, align 4, !tbaa !9
  %35 = mul nsw i32 2, %33
  %36 = sext i32 %35 to i64
  %37 = getelementptr inbounds i8, ptr %32, i64 %36
  %38 = load i16, ptr %37, align 1, !tbaa !15
  %39 = zext i16 %38 to i32
  store i32 %39, ptr %5, align 4, !tbaa !9
  %40 = load i32, ptr %5, align 4, !tbaa !9
  %41 = icmp ne i32 %40, 0
  br i1 %41, label %42, label %55

42:                                               ; preds = %29
  %43 = load i32, ptr %5, align 4, !tbaa !9
  %44 = icmp ne i32 %43, 16
  br i1 %44, label %45, label %55

45:                                               ; preds = %42
  %46 = load i32, ptr %5, align 4, !tbaa !9
  %47 = icmp ne i32 %46, 64
  br i1 %47, label %48, label %55

48:                                               ; preds = %45
  %49 = load i32, ptr %5, align 4, !tbaa !9
  %50 = icmp ne i32 %49, 80
  br i1 %50, label %51, label %55

51:                                               ; preds = %48
  %52 = load i32, ptr %5, align 4, !tbaa !9
  %53 = icmp ne i32 %52, 118
  br i1 %53, label %54, label %55

54:                                               ; preds = %51
  store i32 0, ptr %2, align 4
  store i32 1, ptr %7, align 4
  br label %74

55:                                               ; preds = %51, %48, %45, %42, %29
  %56 = load i32, ptr %5, align 4, !tbaa !9
  %57 = icmp ne i32 %56, 0
  br i1 %57, label %58, label %61

58:                                               ; preds = %55
  %59 = load i32, ptr %6, align 4, !tbaa !9
  %60 = add nsw i32 %59, 1
  store i32 %60, ptr %6, align 4, !tbaa !9
  br label %61

61:                                               ; preds = %58, %55
  %62 = load i32, ptr %5, align 4, !tbaa !9
  %63 = load i32, ptr %4, align 4, !tbaa !9
  %64 = add nsw i32 %63, %62
  store i32 %64, ptr %4, align 4, !tbaa !9
  br label %8, !llvm.loop !16

65:                                               ; preds = %8
  %66 = load i32, ptr %6, align 4, !tbaa !9
  %67 = icmp sgt i32 %66, 10
  br i1 %67, label %68, label %69

68:                                               ; preds = %65
  store i32 100, ptr %2, align 4
  store i32 1, ptr %7, align 4
  br label %74

69:                                               ; preds = %65
  %70 = load i32, ptr %6, align 4, !tbaa !9
  %71 = icmp sgt i32 %70, 2
  br i1 %71, label %72, label %73

72:                                               ; preds = %69
  store i32 49, ptr %2, align 4
  store i32 1, ptr %7, align 4
  br label %74

73:                                               ; preds = %69
  store i32 0, ptr %2, align 4
  store i32 1, ptr %7, align 4
  br label %74

74:                                               ; preds = %73, %72, %68, %54, %28
  call void @llvm.lifetime.end.p0(i64 4, ptr %6) #8
  call void @llvm.lifetime.end.p0(i64 4, ptr %5) #8
  call void @llvm.lifetime.end.p0(i64 4, ptr %4) #8
  %75 = load i32, ptr %2, align 4
  ret i32 %75
}