; Function Attrs: nofree norecurse nosync nounwind memory(read, inaccessiblemem: none) uwtable
define internal range(i32 0, 101) i32 @probe(ptr noundef readonly captures(none) %0) #0 {
  %2 = getelementptr inbounds nuw i8, ptr %0, i64 16
  %3 = load i32, ptr %2, align 8, !tbaa !4
  %4 = icmp sgt i32 %3, 3
  br i1 %4, label %.lr.ph, label %.loopexit

.lr.ph:                                           ; preds = %1
  %5 = getelementptr inbounds nuw i8, ptr %0, i64 8
  %6 = load ptr, ptr %5, align 8, !tbaa !11
  br label %7

7:                                                ; preds = %.lr.ph, %21
  %8 = phi i32 [ 0, %.lr.ph ], [ %23, %21 ]
  %.028 = phi i32 [ 0, %.lr.ph ], [ %.1, %21 ]
  %.02527 = phi i32 [ 0, %.lr.ph ], [ %22, %21 ]
  %9 = sext i32 %8 to i64
  %10 = getelementptr inbounds i8, ptr %6, i64 %9
  %11 = load i16, ptr %10, align 1, !tbaa !12
  %.not = icmp eq i16 %11, 27425
  br i1 %.not, label %12, label %.loopexit

12:                                               ; preds = %7
  %13 = add nsw i32 %.02527, 2
  %14 = add i32 %8, 2
  %15 = sext i32 %14 to i64
  %16 = getelementptr inbounds i8, ptr %6, i64 %15
  %17 = load i16, ptr %16, align 1, !tbaa !12
  %18 = zext i16 %17 to i32
  switch i16 %17, label %.loopexit [
    i16 0, label %21
    i16 16, label %19
    i16 64, label %19
    i16 80, label %19
    i16 118, label %19
  ]

19:                                               ; preds = %12, %12, %12, %12
  %20 = add i32 %.028, 1
  br label %21

21:                                               ; preds = %12, %19
  %.1 = phi i32 [ %20, %19 ], [ %.028, %12 ]
  %22 = add nsw i32 %13, %18
  %23 = shl nsw i32 %22, 1
  %24 = add nsw i32 %23, 3
  %25 = icmp slt i32 %24, %3
  br i1 %25, label %7, label %._crit_edge, !llvm.loop !13

._crit_edge:                                      ; preds = %21
  %26 = icmp sgt i32 %.1, 10
  br i1 %26, label %.loopexit, label %27

27:                                               ; preds = %._crit_edge
  %28 = icmp sgt i32 %.1, 2
  %spec.select = select i1 %28, i32 49, i32 0
  br label %.loopexit

.loopexit:                                        ; preds = %12, %7, %27, %1, %._crit_edge
  %.024 = phi i32 [ 100, %._crit_edge ], [ 0, %1 ], [ %spec.select, %27 ], [ 0, %7 ], [ 0, %12 ]
  ret i32 %.024
}